target datalayout = "e-m:e-p270:32:32-p271:32:32-p272:64:64-i64:64-i128:128-f80:128-n8:16:32:64-S128"
target triple = "x86_64-pc-linux-gnu"

%struct.Cec_ParCor_t_ = type { i32, i32, i32, i32, i32, i32, i32, i32, i32, i32, i32, i32, i32, i32, i32, i32, i32, i32, i32, i32, ptr, ptr }

; Function Attrs: nounwind uwtable
define void @Cec_ManCorSetDefaultParams(ptr noundef %0) #0 {
  %2 = alloca ptr, align 8
  store ptr %0, ptr %2, align 8, !tbaa !76
  %3 = load ptr, ptr %2, align 8, !tbaa !76
  call void @llvm.memset.p0.i64(ptr align 8 %3, i8 0, i64 96, i1 false)
  %4 = load ptr, ptr %2, align 8, !tbaa !76
  %5 = getelementptr inbounds nuw %struct.Cec_ParCor_t_, ptr %4, i32 0, i32 0
  store i32 15, ptr %5, align 8, !tbaa !78
  %6 = load ptr, ptr %2, align 8, !tbaa !76
  %7 = getelementptr inbounds nuw %struct.Cec_ParCor_t_, ptr %6, i32 0, i32 1
  store i32 15, ptr %7, align 4, !tbaa !80
  %8 = load ptr, ptr %2, align 8, !tbaa !76
  %9 = getelementptr inbounds nuw %struct.Cec_ParCor_t_, ptr %8, i32 0, i32 2
  store i32 1, ptr %9, align 8, !tbaa !81
  %10 = load ptr, ptr %2, align 8, !tbaa !76
  %11 = getelementptr inbounds nuw %struct.Cec_ParCor_t_, ptr %10, i32 0, i32 4
  store i32 100, ptr %11, align 8, !tbaa !82
  %12 = load ptr, ptr %2, align 8, !tbaa !76
  %13 = getelementptr inbounds nuw %struct.Cec_ParCor_t_, ptr %12, i32 0, i32 7
  store i32 -1, ptr %13, align 4, !tbaa !83
  %14 = load ptr, ptr %2, align 8, !tbaa !76
  %15 = getelementptr inbounds nuw %struct.Cec_ParCor_t_, ptr %14, i32 0, i32 8
  store i32 -1, ptr %15, align 8, !tbaa !84
  %16 = load ptr, ptr %2, align 8, !tbaa !76
  %17 = getelementptr inbounds nuw %struct.Cec_ParCor_t_, ptr %16, i32 0, i32 10
  store i32 0, ptr %17, align 8, !tbaa !85
  %18 = load ptr, ptr %2, align 8, !tbaa !76
  %19 = getelementptr inbounds nuw %struct.Cec_ParCor_t_, ptr %18, i32 0, i32 11
  store i32 0, ptr %19, align 4, !tbaa !86
  %20 = load ptr, ptr %2, align 8, !tbaa !76
  %21 = getelementptr inbounds nuw %struct.Cec_ParCor_t_, ptr %20, i32 0, i32 12
  store i32 1, ptr %21, align 8, !tbaa !87
  %22 = load ptr, ptr %2, align 8, !tbaa !76
  %23 = getelementptr inbounds nuw %struct.Cec_ParCor_t_, ptr %22, i32 0, i32 14
  store i32 1, ptr %23, align 8, !tbaa !88
  %24 = load ptr, ptr %2, align 8, !tbaa !76
  %25 = getelementptr inbounds nuw %struct.Cec_ParCor_t_, ptr %24, i32 0, i32 15
  store i32 0, ptr %25, align 4, !tbaa !89
  %26 = load ptr, ptr %2, align 8, !tbaa !76
  %27 = getelementptr inbounds nuw %struct.Cec_ParCor_t_, ptr %26, i32 0, i32 18
  store i32 0, ptr %27, align 8, !tbaa !90
  %28 = load ptr, ptr %2, align 8, !tbaa !76
  %29 = getelementptr inbounds nuw %struct.Cec_ParCor_t_, ptr %28, i32 0, i32 19
  store i32 0, ptr %29, align 4, !tbaa !91
  ret void
}