; Function Attrs: mustprogress nofree norecurse nosync nounwind willreturn memory(argmem: write) uwtable
define void @Cec_ManCorSetDefaultParams(ptr noundef writeonly captures(none) initializes((0, 96)) %0) local_unnamed_addr #0 {
  %2 = getelementptr inbounds nuw i8, ptr %0, i64 8
  tail call void @llvm.memset.p0.i64(ptr noundef nonnull align 8 dereferenceable(96) %2, i8 0, i64 88, i1 false)
  store i32 15, ptr %0, align 8, !tbaa !49
  %3 = getelementptr inbounds nuw i8, ptr %0, i64 4
  store i32 15, ptr %3, align 4, !tbaa !51
  %4 = getelementptr inbounds nuw i8, ptr %0, i64 8
  store i32 1, ptr %4, align 8, !tbaa !52
  %5 = getelementptr inbounds nuw i8, ptr %0, i64 16
  store i32 100, ptr %5, align 8, !tbaa !53
  %6 = getelementptr inbounds nuw i8, ptr %0, i64 28
  store i32 -1, ptr %6, align 4, !tbaa !54
  %7 = getelementptr inbounds nuw i8, ptr %0, i64 32
  store i32 -1, ptr %7, align 8, !tbaa !55
  %8 = getelementptr inbounds nuw i8, ptr %0, i64 44
  store i32 0, ptr %8, align 4, !tbaa !56
  %9 = getelementptr inbounds nuw i8, ptr %0, i64 48
  store i32 1, ptr %9, align 8, !tbaa !57
  %10 = getelementptr inbounds nuw i8, ptr %0, i64 56
  store i32 1, ptr %10, align 8, !tbaa !58
  %11 = getelementptr inbounds nuw i8, ptr %0, i64 72
  store i32 0, ptr %11, align 8, !tbaa !59
  ret void
}